target datalayout = "e-m:e-p270:32:32-p271:32:32-p272:64:64-i64:64-i128:128-f80:128-n8:16:32:64-S128"
target triple = "x86_64-pc-linux-gnu"

%struct.x509_st = type { ptr, ptr, ptr, i32, i32, ptr, %struct.crypto_ex_data_st, i64, i64, i64, i64, i64, i64, ptr, ptr, ptr, ptr, ptr, ptr, [20 x i8], ptr }
%struct.crypto_ex_data_st = type { ptr }
%struct.x509_cinf_st = type { ptr, ptr, ptr, ptr, ptr, ptr, ptr, ptr, ptr, ptr, %struct.ASN1_ENCODING_st }
%struct.ASN1_ENCODING_st = type { ptr, i64, i32 }

; Function Attrs: nounwind uwtable
define hidden i32 @X509_cmp(ptr noundef %0, ptr noundef %1) #0 {
  %3 = alloca i32, align 4
  %4 = alloca ptr, align 8
  %5 = alloca ptr, align 8
  %6 = alloca i32, align 4
  %7 = alloca i32, align 4
  store ptr %0, ptr %4, align 8, !tbaa !6
  store ptr %1, ptr %5, align 8, !tbaa !6
  call void @llvm.lifetime.start.p0(i64 4, ptr %6) #5
  %8 = load ptr, ptr %4, align 8, !tbaa !6
  %9 = call i32 @X509_check_purpose(ptr noundef %8, i32 noundef -1, i32 noundef 0)
  %10 = load ptr, ptr %5, align 8, !tbaa !6
  %11 = call i32 @X509_check_purpose(ptr noundef %10, i32 noundef -1, i32 noundef 0)
  %12 = load ptr, ptr %4, align 8, !tbaa !6
  %13 = getelementptr inbounds nuw %struct.x509_st, ptr %12, i32 0, i32 19
  %14 = getelementptr inbounds [20 x i8], ptr %13, i64 0, i64 0
  %15 = load ptr, ptr %5, align 8, !tbaa !6
  %16 = getelementptr inbounds nuw %struct.x509_st, ptr %15, i32 0, i32 19
  %17 = getelementptr inbounds [20 x i8], ptr %16, i64 0, i64 0
  %18 = call i32 @memcmp(ptr noundef %14, ptr noundef %17, i64 noundef 20) #6
  store i32 %18, ptr %6, align 4, !tbaa !35
  %19 = load i32, ptr %6, align 4, !tbaa !35
  %20 = icmp ne i32 %19, 0
  br i1 %20, label %21, label %23

21:                                               ; preds = %2
  %22 = load i32, ptr %6, align 4, !tbaa !35
  store i32 %22, ptr %3, align 4
  store i32 1, ptr %7, align 4
  br label %80

23:                                               ; preds = %2
  %24 = load ptr, ptr %4, align 8, !tbaa !6
  %25 = getelementptr inbounds nuw %struct.x509_st, ptr %24, i32 0, i32 0
  %26 = load ptr, ptr %25, align 8, !tbaa !11
  %27 = getelementptr inbounds nuw %struct.x509_cinf_st, ptr %26, i32 0, i32 10
  %28 = getelementptr inbounds nuw %struct.ASN1_ENCODING_st, ptr %27, i32 0, i32 2
  %29 = load i32, ptr %28, align 8, !tbaa !66
  %30 = icmp ne i32 %29, 0
  br i1 %30, label %78, label %31

31:                                               ; preds = %23
  %32 = load ptr, ptr %5, align 8, !tbaa !6
  %33 = getelementptr inbounds nuw %struct.x509_st, ptr %32, i32 0, i32 0
  %34 = load ptr, ptr %33, align 8, !tbaa !11
  %35 = getelementptr inbounds nuw %struct.x509_cinf_st, ptr %34, i32 0, i32 10
  %36 = getelementptr inbounds nuw %struct.ASN1_ENCODING_st, ptr %35, i32 0, i32 2
  %37 = load i32, ptr %36, align 8, !tbaa !66
  %38 = icmp ne i32 %37, 0
  br i1 %38, label %78, label %39

39:                                               ; preds = %31
  %40 = load ptr, ptr %4, align 8, !tbaa !6
  %41 = getelementptr inbounds nuw %struct.x509_st, ptr %40, i32 0, i32 0
  %42 = load ptr, ptr %41, align 8, !tbaa !11
  %43 = getelementptr inbounds nuw %struct.x509_cinf_st, ptr %42, i32 0, i32 10
  %44 = getelementptr inbounds nuw %struct.ASN1_ENCODING_st, ptr %43, i32 0, i32 1
  %45 = load i64, ptr %44, align 8, !tbaa !67
  %46 = load ptr, ptr %5, align 8, !tbaa !6
  %47 = getelementptr inbounds nuw %struct.x509_st, ptr %46, i32 0, i32 0
  %48 = load ptr, ptr %47, align 8, !tbaa !11
  %49 = getelementptr inbounds nuw %struct.x509_cinf_st, ptr %48, i32 0, i32 10
  %50 = getelementptr inbounds nuw %struct.ASN1_ENCODING_st, ptr %49, i32 0, i32 1
  %51 = load i64, ptr %50, align 8, !tbaa !67
  %52 = sub nsw i64 %45, %51
  %53 = trunc i64 %52 to i32
  store i32 %53, ptr %6, align 4, !tbaa !35
  %54 = load i32, ptr %6, align 4, !tbaa !35
  %55 = icmp ne i32 %54, 0
  br i1 %55, label %56, label %58

56:                                               ; preds = %39
  %57 = load i32, ptr %6, align 4, !tbaa !35
  store i32 %57, ptr %3, align 4
  store i32 1, ptr %7, align 4
  br label %80

58:                                               ; preds = %39
  %59 = load ptr, ptr %4, align 8, !tbaa !6
  %60 = getelementptr inbounds nuw %struct.x509_st, ptr %59, i32 0, i32 0
  %61 = load ptr, ptr %60, align 8, !tbaa !11
  %62 = getelementptr inbounds nuw %struct.x509_cinf_st, ptr %61, i32 0, i32 10
  %63 = getelementptr inbounds nuw %struct.ASN1_ENCODING_st, ptr %62, i32 0, i32 0
  %64 = load ptr, ptr %63, align 8, !tbaa !68
  %65 = load ptr, ptr %5, align 8, !tbaa !6
  %66 = getelementptr inbounds nuw %struct.x509_st, ptr %65, i32 0, i32 0
  %67 = load ptr, ptr %66, align 8, !tbaa !11
  %68 = getelementptr inbounds nuw %struct.x509_cinf_st, ptr %67, i32 0, i32 10
  %69 = getelementptr inbounds nuw %struct.ASN1_ENCODING_st, ptr %68, i32 0, i32 0
  %70 = load ptr, ptr %69, align 8, !tbaa !68
  %71 = load ptr, ptr %4, align 8, !tbaa !6
  %72 = getelementptr inbounds nuw %struct.x509_st, ptr %71, i32 0, i32 0
  %73 = load ptr, ptr %72, align 8, !tbaa !11
  %74 = getelementptr inbounds nuw %struct.x509_cinf_st, ptr %73, i32 0, i32 10
  %75 = getelementptr inbounds nuw %struct.ASN1_ENCODING_st, ptr %74, i32 0, i32 1
  %76 = load i64, ptr %75, align 8, !tbaa !67
  %77 = call i32 @memcmp(ptr noundef %64, ptr noundef %70, i64 noundef %76) #6
  store i32 %77, ptr %3, align 4
  store i32 1, ptr %7, align 4
  br label %80

78:                                               ; preds = %31, %23
  %79 = load i32, ptr %6, align 4, !tbaa !35
  store i32 %79, ptr %3, align 4
  store i32 1, ptr %7, align 4
  br label %80

80:                                               ; preds = %78, %58, %56, %21
  call void @llvm.lifetime.end.p0(i64 4, ptr %6) #5
  %81 = load i32, ptr %3, align 4
  ret i32 %81
}