; Function Attrs: nounwind uwtable
define hidden i32 @X509_cmp(ptr noundef %0, ptr noundef %1) local_unnamed_addr #0 {
  %3 = tail call i32 @X509_check_purpose(ptr noundef %0, i32 noundef -1, i32 noundef 0) #8
  %4 = tail call i32 @X509_check_purpose(ptr noundef %1, i32 noundef -1, i32 noundef 0) #8
  %5 = getelementptr inbounds nuw i8, ptr %0, i64 144
  %6 = getelementptr inbounds nuw i8, ptr %1, i64 144
  %7 = tail call i32 @memcmp(ptr noundef nonnull dereferenceable(20) %5, ptr noundef nonnull dereferenceable(20) %6, i64 noundef 20) #9
  %.not = icmp eq i32 %7, 0
  br i1 %.not, label %8, label %29

8:                                                ; preds = %2
  %9 = load ptr, ptr %0, align 8, !tbaa !6
  %10 = getelementptr inbounds nuw i8, ptr %9, i64 80
  %11 = getelementptr inbounds nuw i8, ptr %9, i64 96
  %12 = load i32, ptr %11, align 8, !tbaa !56
  %.not18 = icmp eq i32 %12, 0
  br i1 %.not18, label %13, label %29

13:                                               ; preds = %8
  %14 = load ptr, ptr %1, align 8, !tbaa !6
  %15 = getelementptr inbounds nuw i8, ptr %14, i64 80
  %16 = getelementptr inbounds nuw i8, ptr %14, i64 96
  %17 = load i32, ptr %16, align 8, !tbaa !56
  %.not19 = icmp eq i32 %17, 0
  br i1 %.not19, label %18, label %29

18:                                               ; preds = %13
  %19 = getelementptr inbounds nuw i8, ptr %9, i64 88
  %20 = load i64, ptr %19, align 8, !tbaa !57
  %21 = getelementptr inbounds nuw i8, ptr %14, i64 88
  %22 = load i64, ptr %21, align 8, !tbaa !57
  %23 = sub nsw i64 %20, %22
  %24 = trunc i64 %23 to i32
  %.not20 = icmp eq i32 %24, 0
  br i1 %.not20, label %25, label %29

25:                                               ; preds = %18
  %26 = load ptr, ptr %10, align 8, !tbaa !58
  %27 = load ptr, ptr %15, align 8, !tbaa !58
  %28 = tail call i32 @memcmp(ptr noundef %26, ptr noundef %27, i64 noundef %20) #9
  br label %29

29:                                               ; preds = %8, %13, %18, %2, %25
  %.0 = phi i32 [ %28, %25 ], [ %7, %2 ], [ %24, %18 ], [ 0, %13 ], [ 0, %8 ]
  ret i32 %.0
}